{
   GTest_UninterestingCallReactionMap_Still_Reachable
   Memcheck:Leak
   match-leak-kinds: reachable
   fun:_Znwm
   fun:_ZN7testing12_GLOBAL__N_128UninterestingCallReactionMapEv
   fun:_ZN7testing12_GLOBAL__N_131SetReactionOnUninterestingCallsEmNS_8internal12CallReactionE
   fun:_ZN7testing4Mock23AllowUninterestingCallsEm
   fun:_ZN7testing8internal12NiceMockImplIN17Information_Model7testing12ReadableMockEEC1Ev
   fun:_ZN7testing8NiceMockIN17Information_Model7testing12ReadableMockEEC1IRNS1_8DataTypeEEEOT_
   fun:_ZSt10_ConstructIN7testing8NiceMockIN17Information_Model7testing12ReadableMockEEEJRNS2_8DataTypeEEEvPT_DpOT0_
   fun:_ZNSt16allocator_traitsISaIvEE9constructIN7testing8NiceMockIN17Information_Model7testing12ReadableMockEEEJRNS5_8DataTypeEEEEvRS0_PT_DpOT0_
   fun:_ZNSt23_Sp_counted_ptr_inplaceIN7testing8NiceMockIN17Information_Model7testing12ReadableMockEEESaIvELN9__gnu_cxx12_Lock_policyE2EEC1IJRNS2_8DataTypeEEEES6_DpOT_
   fun:_ZNSt14__shared_countILN9__gnu_cxx12_Lock_policyE2EEC1IN7testing8NiceMockIN17Information_Model7testing12ReadableMockEEESaIvEJRNS6_8DataTypeEEEERPT_St20_Sp_alloc_shared_tagIT0_EDpOT1_
   fun:_ZNSt12__shared_ptrIN7testing8NiceMockIN17Information_Model7testing12ReadableMockEEELN9__gnu_cxx12_Lock_policyE2EEC1ISaIvEJRNS2_8DataTypeEEEESt20_Sp_alloc_shared_tagIT_EDpOT0_
   fun:_ZNSt10shared_ptrIN7testing8NiceMockIN17Information_Model7testing12ReadableMockEEEEC1ISaIvEJRNS2_8DataTypeEEEESt20_Sp_alloc_shared_tagIT_EDpOT0_
   fun:_ZSt11make_sharedIN7testing8NiceMockIN17Information_Model7testing12ReadableMockEEEJRNS2_8DataTypeEEESt10shared_ptrINSt9enable_ifIXntsrSt8is_arrayIT_E5valueESB_E4typeEEDpOT0_
   fun:_ZN17Information_Model7testing14ObservableMockC1ENS_8DataTypeE
   fun:_ZSt10_ConstructIN17Information_Model7testing14ObservableMockEJNS0_8DataTypeEEEvPT_DpOT0_
   fun:_ZNSt16allocator_traitsISaIvEE9constructIN17Information_Model7testing14ObservableMockEJNS3_8DataTypeEEEEvRS0_PT_DpOT0_
   fun:_ZNSt23_Sp_counted_ptr_inplaceIN17Information_Model7testing14ObservableMockESaIvELN9__gnu_cxx12_Lock_policyE2EEC1IJNS0_8DataTypeEEEES3_DpOT_
   fun:_ZNSt14__shared_countILN9__gnu_cxx12_Lock_policyE2EEC1IN17Information_Model7testing14ObservableMockESaIvEJNS4_8DataTypeEEEERPT_St20_Sp_alloc_shared_tagIT0_EDpOT1_
   fun:_ZNSt12__shared_ptrIN17Information_Model7testing14ObservableMockELN9__gnu_cxx12_Lock_policyE2EEC1ISaIvEJNS0_8DataTypeEEEESt20_Sp_alloc_shared_tagIT_EDpOT0_
   fun:_ZNSt10shared_ptrIN17Information_Model7testing14ObservableMockEEC1ISaIvEJNS0_8DataTypeEEEESt20_Sp_alloc_shared_tagIT_EDpOT0_
   fun:_ZSt11make_sharedIN17Information_Model7testing14ObservableMockEJNS0_8DataTypeEEESt10shared_ptrINSt9enable_ifIXntsrSt8is_arrayIT_E5valueES7_E4typeEEDpOT0_
   fun:_ZN17Information_Model7testingL51gtest_ElementTestsValuesElementTests_EvalGenerator_Ev
   fun:_ZN7testing8internal26ParameterizedTestSuiteInfoIN17Information_Model7testing12ElementTestsEE13RegisterTestsEv
   fun:_ZN7testing8internal30ParameterizedTestSuiteRegistry13RegisterTestsEv
   fun:_ZN7testing8internal12UnitTestImpl26RegisterParameterizedTestsEv
   fun:_ZN7testing8internal12UnitTestImpl19PostFlagParsingInitEv
   fun:_ZN7testing8internal18InitGoogleTestImplIcEEvPiPPT_
   fun:_ZN7testing14InitGoogleTestEPiPPc
   fun:main
}
{
   GTest__Hashtable_CallReaction_Still_Reachable
   Memcheck:Leak
   match-leak-kinds: reachable
   fun:_Znwm
   fun:_ZNSt15__new_allocatorIPNSt8__detail15_Hash_node_baseEE8allocateEmPKv
   fun:_ZNSt16allocator_traitsISaIPNSt8__detail15_Hash_node_baseEEE8allocateERS3_m
   fun:_ZNSt8__detail16_Hashtable_allocISaINS_10_Hash_nodeISt4pairIKmN7testing8internal12CallReactionEELb0EEEEE19_M_allocate_bucketsEm
   fun:_ZNSt10_HashtableImSt4pairIKmN7testing8internal12CallReactionEESaIS5_ENSt8__detail10_Select1stESt8equal_toImESt4hashImENS7_18_Mod_range_hashingENS7_20_Default_ranged_hashENS7_20_Prime_rehash_policyENS7_17_Hashtable_traitsILb0ELb0ELb1EEEE19_M_allocate_bucketsEm
   fun:_ZNSt10_HashtableImSt4pairIKmN7testing8internal12CallReactionEESaIS5_ENSt8__detail10_Select1stESt8equal_toImESt4hashImENS7_18_Mod_range_hashingENS7_20_Default_ranged_hashENS7_20_Prime_rehash_policyENS7_17_Hashtable_traitsILb0ELb0ELb1EEEE13_M_rehash_auxEmSt17integral_constantIbLb1EE
   fun:_ZNSt10_HashtableImSt4pairIKmN7testing8internal12CallReactionEESaIS5_ENSt8__detail10_Select1stESt8equal_toImESt4hashImENS7_18_Mod_range_hashingENS7_20_Default_ranged_hashENS7_20_Prime_rehash_policyENS7_17_Hashtable_traitsILb0ELb0ELb1EEEE9_M_rehashEmRS1_
   fun:_ZNSt10_HashtableImSt4pairIKmN7testing8internal12CallReactionEESaIS5_ENSt8__detail10_Select1stESt8equal_toImESt4hashImENS7_18_Mod_range_hashingENS7_20_Default_ranged_hashENS7_20_Prime_rehash_policyENS7_17_Hashtable_traitsILb0ELb0ELb1EEEE21_M_insert_unique_nodeEmmPNS7_10_Hash_nodeIS5_Lb0EEEm
   fun:_ZNSt8__detail9_Map_baseImSt4pairIKmN7testing8internal12CallReactionEESaIS6_ENS_10_Select1stESt8equal_toImESt4hashImENS_18_Mod_range_hashingENS_20_Default_ranged_hashENS_20_Prime_rehash_policyENS_17_Hashtable_traitsILb0ELb0ELb1EEELb1EEixERS2_
   fun:_ZNSt13unordered_mapImN7testing8internal12CallReactionESt4hashImESt8equal_toImESaISt4pairIKmS2_EEEixERS8_
   fun:_ZN7testing12_GLOBAL__N_131SetReactionOnUninterestingCallsEmNS_8internal12CallReactionE
   fun:_ZN7testing4Mock23AllowUninterestingCallsEm
   fun:_ZN7testing8internal12NiceMockImplIN17Information_Model7testing12CallableMockEEC1Ev
   fun:_ZN7testing8NiceMockIN17Information_Model7testing12CallableMockEEC1INS1_8DataTypeEEEOT_
   fun:_ZSt10_ConstructIN7testing8NiceMockIN17Information_Model7testing12CallableMockEEEJNS2_8DataTypeEEEvPT_DpOT0_
   fun:_ZNSt16allocator_traitsISaIvEE9constructIN7testing8NiceMockIN17Information_Model7testing12CallableMockEEEJNS5_8DataTypeEEEEvRS0_PT_DpOT0_
   fun:_ZNSt23_Sp_counted_ptr_inplaceIN7testing8NiceMockIN17Information_Model7testing12CallableMockEEESaIvELN9__gnu_cxx12_Lock_policyE2EEC1IJNS2_8DataTypeEEEES6_DpOT_
   fun:_ZNSt14__shared_countILN9__gnu_cxx12_Lock_policyE2EEC1IN7testing8NiceMockIN17Information_Model7testing12CallableMockEEESaIvEJNS6_8DataTypeEEEERPT_St20_Sp_alloc_shared_tagIT0_EDpOT1_
   fun:_ZNSt12__shared_ptrIN7testing8NiceMockIN17Information_Model7testing12CallableMockEEELN9__gnu_cxx12_Lock_policyE2EEC1ISaIvEJNS2_8DataTypeEEEESt20_Sp_alloc_shared_tagIT_EDpOT0_
   fun:_ZNSt10shared_ptrIN7testing8NiceMockIN17Information_Model7testing12CallableMockEEEEC1ISaIvEJNS2_8DataTypeEEEESt20_Sp_alloc_shared_tagIT_EDpOT0_
   fun:_ZSt11make_sharedIN7testing8NiceMockIN17Information_Model7testing12CallableMockEEEJNS2_8DataTypeEEESt10shared_ptrINSt9enable_ifIXntsrSt8is_arrayIT_E5valueESA_E4typeEEDpOT0_
   fun:_ZN17Information_Model7testing10GroupTestsC1Ev
   fun:_ZN17Information_Model7testing32GroupTests_addElementThrows_TestC1Ev
   fun:_ZN7testing8internal15TestFactoryImplIN17Information_Model7testing32GroupTests_addElementThrows_TestEE10CreateTestEv
   fun:_ZN7testing8internal38HandleSehExceptionsInMethodIfSupportedINS0_15TestFactoryBaseEPNS_4TestEEET0_PT_MS6_FS5_vEPKc
   fun:_ZN7testing8internal35HandleExceptionsInMethodIfSupportedINS0_15TestFactoryBaseEPNS_4TestEEET0_PT_MS6_FS5_vEPKc
   fun:_ZN7testing8TestInfo3RunEv
   fun:_ZN7testing9TestSuite3RunEv
   fun:_ZN7testing8internal12UnitTestImpl11RunAllTestsEv
   fun:_ZN7testing8internal38HandleSehExceptionsInMethodIfSupportedINS0_12UnitTestImplEbEET0_PT_MS4_FS3_vEPKc
   fun:_ZN7testing8internal35HandleExceptionsInMethodIfSupportedINS0_12UnitTestImplEbEET0_PT_MS4_FS3_vEPKc
   fun:_ZN7testing8UnitTest3RunEv
   fun:_Z13RUN_ALL_TESTSv
   fun:main
}